target datalayout = "e-m:e-p270:32:32-p271:32:32-p272:64:64-i64:64-i128:128-f80:128-n8:16:32:64-S128"
target triple = "x86_64-pc-linux-gnu"

%struct._Unwind_Exception = type { i64, ptr, i64, i64 }
%"struct.__cxxabiv1::__cxa_exception" = type { ptr, i64, ptr, ptr, ptr, ptr, ptr, i32, i32, ptr, ptr, ptr, ptr, %struct._Unwind_Exception }

; Function Attrs: inlinehint mustprogress nounwind uwtable
define internal noundef ptr @_ZN10__cxxabiv1L32cxa_exception_from_thrown_objectEPv(ptr noundef %0) #8 {
  %2 = alloca ptr, align 8
  store ptr %0, ptr %2, align 8, !tbaa !15
  %3 = load ptr, ptr %2, align 8, !tbaa !15
  %4 = getelementptr inbounds %"struct.__cxxabiv1::__cxa_exception", ptr %3, i64 -1
  ret ptr %4
}

; Function Attrs: mustprogress nounwind uwtable
define internal noundef i64 @_ZN10__cxxabiv1L24get_cxa_exception_offsetEv() #0 {
  %1 = alloca i64, align 8
  %2 = alloca i64, align 8
  %3 = alloca i64, align 8
  %4 = alloca i64, align 8
  call void @llvm.lifetime.start.p0(i64 8, ptr %1) #14
  store i64 16, ptr %1, align 8, !tbaa !9
  call void @llvm.lifetime.start.p0(i64 8, ptr %2) #14
  store i64 128, ptr %2, align 8, !tbaa !9
  call void @llvm.lifetime.start.p0(i64 8, ptr %3) #14
  store i64 128, ptr %3, align 8, !tbaa !9
  call void @llvm.lifetime.start.p0(i64 8, ptr %4) #14
  store i64 0, ptr %4, align 8, !tbaa !9
  call void @llvm.lifetime.end.p0(i64 8, ptr %4) #14
  call void @llvm.lifetime.end.p0(i64 8, ptr %3) #14
  call void @llvm.lifetime.end.p0(i64 8, ptr %2) #14
  call void @llvm.lifetime.end.p0(i64 8, ptr %1) #14
  ret i64 0
}

; Function Attrs: mustprogress nounwind uwtable
define dso_local void @__cxa_free_exception(ptr noundef %0) #0 personality ptr @__gxx_personality_v0 {
  %2 = alloca ptr, align 8
  %3 = alloca i64, align 8
  %4 = alloca ptr, align 8
  store ptr %0, ptr %2, align 8, !tbaa !15
  call void @llvm.lifetime.start.p0(i64 8, ptr %3) #14
  %5 = invoke noundef i64 @_ZN10__cxxabiv1L24get_cxa_exception_offsetEv()
          to label %6 unwind label %15

6:                                                ; preds = %1
  store i64 %5, ptr %3, align 8, !tbaa !9
  call void @llvm.lifetime.start.p0(i64 8, ptr %4) #14
  %7 = load ptr, ptr %2, align 8, !tbaa !15
  %8 = invoke noundef ptr @_ZN10__cxxabiv1L32cxa_exception_from_thrown_objectEPv(ptr noundef %7)
          to label %9 unwind label %15

9:                                                ; preds = %6
  %10 = load i64, ptr %3, align 8, !tbaa !9
  %11 = sub i64 0, %10
  %12 = getelementptr inbounds i8, ptr %8, i64 %11
  store ptr %12, ptr %4, align 8, !tbaa !11
  %13 = load ptr, ptr %4, align 8, !tbaa !11
  invoke void @_ZN10__cxxabiv128__aligned_free_with_fallbackEPv(ptr noundef %13)
          to label %14 unwind label %15

14:                                               ; preds = %9
  call void @llvm.lifetime.end.p0(i64 8, ptr %4) #14
  call void @llvm.lifetime.end.p0(i64 8, ptr %3) #14
  ret void

15:                                               ; preds = %9, %6, %1
  %16 = landingpad { ptr, i32 }
          catch ptr null
  %17 = extractvalue { ptr, i32 } %16, 0
  call void @__clang_call_terminate(ptr %17) #15
  unreachable
}