; Function Attrs: mustprogress nounwind uwtable
define dso_local void @__cxa_free_exception(ptr noundef %0) local_unnamed_addr #2 personality ptr @__gxx_personality_v0 {
  %2 = getelementptr inbounds i8, ptr %0, i64 -128
  invoke void @_ZN10__cxxabiv128__aligned_free_with_fallbackEPv(ptr noundef nonnull %2)
          to label %3 unwind label %4

3:                                                ; preds = %1
  ret void

4:                                                ; preds = %1
  %5 = landingpad { ptr, i32 }
          catch ptr null
  %6 = extractvalue { ptr, i32 } %5, 0
  tail call void @__clang_call_terminate(ptr %6) #16
  unreachable
}